target datalayout = "e-m:e-p270:32:32-p271:32:32-p272:64:64-i64:64-i128:128-f80:128-n8:16:32:64-S128"
target triple = "x86_64-pc-linux-gnu"

%struct.Fra_Sml_t_ = type { ptr, i32, i32, i32, i32, i32, i32, i32, i32, [0 x i32] }
%struct.Aig_Man_t_ = type { ptr, ptr, ptr, ptr, ptr, ptr, ptr, %struct.Aig_Obj_t_, i32, i32, i32, i32, i32, i32, [7 x i32], i32, ptr, i32, ptr, i32, ptr, i32, i32, i32, ptr, i32, i32, i32, i32, i32, ptr, ptr, i32, ptr, ptr, i32, ptr, ptr, i32, i32, i32, ptr, ptr, ptr, ptr, ptr, ptr, ptr, ptr, ptr, ptr, ptr, ptr, ptr, ptr, i32, ptr, ptr, ptr, ptr, i32, i64, i64, i64, ptr, ptr }
%struct.Aig_Obj_t_ = type { %union.anon, ptr, ptr, i64, i32, i32, %union.anon.0 }
%union.anon = type { ptr }
%union.anon.0 = type { ptr }
%struct.Vec_Ptr_t_ = type { i32, i32, ptr }
%struct.Vec_Int_t_ = type { i32, i32, ptr }
%struct.Fra_Man_t_ = type { ptr, ptr, ptr, i32, ptr, i32, ptr, ptr, ptr, i32, ptr, ptr, ptr, ptr, i32, ptr, i64, i64, ptr, ptr, i32, ptr, i32, i32, i32, i32, i32, i32, i32, i32, i32, i32, i32, i32, i32, i32, i32, i32, i32, i32, i32, i64, i64, i64, i64, i64, i64, i64, i64, i64, i64, i64 }

; Function Attrs: inlinehint nounwind uwtable
define internal ptr @Fra_ObjSim(ptr noundef %0, i32 noundef %1) #2 {
  %3 = alloca ptr, align 8
  %4 = alloca i32, align 4
  store ptr %0, ptr %3, align 8, !tbaa !3
  store i32 %1, ptr %4, align 4, !tbaa !8
  %5 = load ptr, ptr %3, align 8, !tbaa !3
  %6 = getelementptr inbounds nuw %struct.Fra_Sml_t_, ptr %5, i32 0, i32 9
  %7 = getelementptr inbounds [0 x i32], ptr %6, i64 0, i64 0
  %8 = load ptr, ptr %3, align 8, !tbaa !3
  %9 = getelementptr inbounds nuw %struct.Fra_Sml_t_, ptr %8, i32 0, i32 4
  %10 = load i32, ptr %9, align 4, !tbaa !12
  %11 = load i32, ptr %4, align 4, !tbaa !8
  %12 = mul nsw i32 %10, %11
  %13 = sext i32 %12 to i64
  %14 = getelementptr inbounds i32, ptr %7, i64 %13
  ret ptr %14
}

; Function Attrs: inlinehint nounwind uwtable
define internal ptr @Vec_PtrEntry(ptr noundef %0, i32 noundef %1) #2 {
  %3 = alloca ptr, align 8
  %4 = alloca i32, align 4
  store ptr %0, ptr %3, align 8, !tbaa !31
  store i32 %1, ptr %4, align 4, !tbaa !8
  %5 = load ptr, ptr %3, align 8, !tbaa !31
  %6 = getelementptr inbounds nuw %struct.Vec_Ptr_t_, ptr %5, i32 0, i32 2
  %7 = load ptr, ptr %6, align 8, !tbaa !38
  %8 = load i32, ptr %4, align 4, !tbaa !8
  %9 = sext i32 %8 to i64
  %10 = getelementptr inbounds ptr, ptr %7, i64 %9
  %11 = load ptr, ptr %10, align 8, !tbaa !39
  ret ptr %11
}

; Function Attrs: inlinehint nounwind uwtable
define internal void @Vec_IntWriteEntry(ptr noundef %0, i32 noundef %1, i32 noundef %2) #2 {
  %4 = alloca ptr, align 8
  %5 = alloca i32, align 4
  %6 = alloca i32, align 4
  store ptr %0, ptr %4, align 8, !tbaa !41
  store i32 %1, ptr %5, align 4, !tbaa !8
  store i32 %2, ptr %6, align 4, !tbaa !8
  %7 = load i32, ptr %6, align 4, !tbaa !8
  %8 = load ptr, ptr %4, align 8, !tbaa !41
  %9 = getelementptr inbounds nuw %struct.Vec_Int_t_, ptr %8, i32 0, i32 2
  %10 = load ptr, ptr %9, align 8, !tbaa !48
  %11 = load i32, ptr %5, align 4, !tbaa !8
  %12 = sext i32 %11 to i64
  %13 = getelementptr inbounds i32, ptr %10, i64 %12
  store i32 %7, ptr %13, align 4, !tbaa !8
  ret void
}

; Function Attrs: inlinehint nounwind uwtable
define internal i32 @Sml_NodeCheckImp(ptr noundef %0, i32 noundef %1, i32 noundef %2) #2 {
  %4 = alloca i32, align 4
  %5 = alloca ptr, align 8
  %6 = alloca i32, align 4
  %7 = alloca i32, align 4
  %8 = alloca ptr, align 8
  %9 = alloca ptr, align 8
  %10 = alloca i32, align 4
  %11 = alloca i32, align 4
  store ptr %0, ptr %5, align 8, !tbaa !3
  store i32 %1, ptr %6, align 4, !tbaa !8
  store i32 %2, ptr %7, align 4, !tbaa !8
  call void @llvm.lifetime.start.p0(i64 8, ptr %8) #10
  call void @llvm.lifetime.start.p0(i64 8, ptr %9) #10
  call void @llvm.lifetime.start.p0(i64 4, ptr %10) #10
  %12 = load ptr, ptr %5, align 8, !tbaa !3
  %13 = load i32, ptr %6, align 4, !tbaa !8
  %14 = call ptr @Fra_ObjSim(ptr noundef %12, i32 noundef %13)
  store ptr %14, ptr %8, align 8, !tbaa !10
  %15 = load ptr, ptr %5, align 8, !tbaa !3
  %16 = load i32, ptr %7, align 4, !tbaa !8
  %17 = call ptr @Fra_ObjSim(ptr noundef %15, i32 noundef %16)
  store ptr %17, ptr %9, align 8, !tbaa !10
  %18 = load ptr, ptr %5, align 8, !tbaa !3
  %19 = getelementptr inbounds nuw %struct.Fra_Sml_t_, ptr %18, i32 0, i32 5
  %20 = load i32, ptr %19, align 8, !tbaa !76
  store i32 %20, ptr %10, align 4, !tbaa !8
  br label %21

21:                                               ; preds = %43, %3
  %22 = load i32, ptr %10, align 4, !tbaa !8
  %23 = load ptr, ptr %5, align 8, !tbaa !3
  %24 = getelementptr inbounds nuw %struct.Fra_Sml_t_, ptr %23, i32 0, i32 4
  %25 = load i32, ptr %24, align 4, !tbaa !12
  %26 = icmp slt i32 %22, %25
  br i1 %26, label %27, label %46

27:                                               ; preds = %21
  %28 = load ptr, ptr %8, align 8, !tbaa !10
  %29 = load i32, ptr %10, align 4, !tbaa !8
  %30 = sext i32 %29 to i64
  %31 = getelementptr inbounds i32, ptr %28, i64 %30
  %32 = load i32, ptr %31, align 4, !tbaa !8
  %33 = load ptr, ptr %9, align 8, !tbaa !10
  %34 = load i32, ptr %10, align 4, !tbaa !8
  %35 = sext i32 %34 to i64
  %36 = getelementptr inbounds i32, ptr %33, i64 %35
  %37 = load i32, ptr %36, align 4, !tbaa !8
  %38 = xor i32 %37, -1
  %39 = and i32 %32, %38
  %40 = icmp ne i32 %39, 0
  br i1 %40, label %41, label %42

41:                                               ; preds = %27
  store i32 0, ptr %4, align 4
  store i32 1, ptr %11, align 4
  br label %47

42:                                               ; preds = %27
  br label %43

43:                                               ; preds = %42
  %44 = load i32, ptr %10, align 4, !tbaa !8
  %45 = add nsw i32 %44, 1
  store i32 %45, ptr %10, align 4, !tbaa !8
  br label %21, !llvm.loop !77

46:                                               ; preds = %21
  store i32 1, ptr %4, align 4
  store i32 1, ptr %11, align 4
  br label %47

47:                                               ; preds = %46, %41
  call void @llvm.lifetime.end.p0(i64 4, ptr %10) #10
  call void @llvm.lifetime.end.p0(i64 8, ptr %9) #10
  call void @llvm.lifetime.end.p0(i64 8, ptr %8) #10
  %48 = load i32, ptr %4, align 4
  ret i32 %48
}

; Function Attrs: inlinehint nounwind uwtable
define internal i32 @Fra_ImpRight(i32 noundef %0) #2 {
  %2 = alloca i32, align 4
  store i32 %0, ptr %2, align 4, !tbaa !8
  %3 = load i32, ptr %2, align 4, !tbaa !8
  %4 = ashr i32 %3, 16
  ret i32 %4
}

; Function Attrs: inlinehint nounwind uwtable
define internal ptr @Aig_ManObj(ptr noundef %0, i32 noundef %1) #2 {
  %3 = alloca ptr, align 8
  %4 = alloca i32, align 4
  store ptr %0, ptr %3, align 8, !tbaa !89
  store i32 %1, ptr %4, align 4, !tbaa !8
  %5 = load ptr, ptr %3, align 8, !tbaa !89
  %6 = getelementptr inbounds nuw %struct.Aig_Man_t_, ptr %5, i32 0, i32 4
  %7 = load ptr, ptr %6, align 8, !tbaa !16
  %8 = icmp ne ptr %7, null
  br i1 %8, label %9, label %15

9:                                                ; preds = %2
  %10 = load ptr, ptr %3, align 8, !tbaa !89
  %11 = getelementptr inbounds nuw %struct.Aig_Man_t_, ptr %10, i32 0, i32 4
  %12 = load ptr, ptr %11, align 8, !tbaa !16
  %13 = load i32, ptr %4, align 4, !tbaa !8
  %14 = call ptr @Vec_PtrEntry(ptr noundef %12, i32 noundef %13)
  br label %16

15:                                               ; preds = %2
  br label %16

16:                                               ; preds = %15, %9
  %17 = phi ptr [ %14, %9 ], [ null, %15 ]
  ret ptr %17
}

; Function Attrs: inlinehint nounwind uwtable
define internal i32 @Fra_ImpLeft(i32 noundef %0) #2 {
  %2 = alloca i32, align 4
  store i32 %0, ptr %2, align 4, !tbaa !8
  %3 = load i32, ptr %2, align 4, !tbaa !8
  %4 = and i32 %3, 65535
  ret i32 %4
}

; Function Attrs: inlinehint nounwind uwtable
define internal i32 @Vec_IntEntry(ptr noundef %0, i32 noundef %1) #2 {
  %3 = alloca ptr, align 8
  %4 = alloca i32, align 4
  store ptr %0, ptr %3, align 8, !tbaa !41
  store i32 %1, ptr %4, align 4, !tbaa !8
  %5 = load ptr, ptr %3, align 8, !tbaa !41
  %6 = getelementptr inbounds nuw %struct.Vec_Int_t_, ptr %5, i32 0, i32 2
  %7 = load ptr, ptr %6, align 8, !tbaa !48
  %8 = load i32, ptr %4, align 4, !tbaa !8
  %9 = sext i32 %8 to i64
  %10 = getelementptr inbounds i32, ptr %7, i64 %9
  %11 = load i32, ptr %10, align 4, !tbaa !8
  ret i32 %11
}

; Function Attrs: inlinehint nounwind uwtable
define internal i32 @Vec_IntSize(ptr noundef %0) #2 {
  %2 = alloca ptr, align 8
  store ptr %0, ptr %2, align 8, !tbaa !41
  %3 = load ptr, ptr %2, align 8, !tbaa !41
  %4 = getelementptr inbounds nuw %struct.Vec_Int_t_, ptr %3, i32 0, i32 1
  %5 = load i32, ptr %4, align 4, !tbaa !45
  ret i32 %5
}

; Function Attrs: nounwind uwtable
define i32 @Fra_ImpRefineUsingCex(ptr noundef %0, ptr noundef %1) #0 {
  %3 = alloca ptr, align 8
  %4 = alloca ptr, align 8
  %5 = alloca ptr, align 8
  %6 = alloca ptr, align 8
  %7 = alloca i32, align 4
  %8 = alloca i32, align 4
  %9 = alloca i32, align 4
  store ptr %0, ptr %3, align 8, !tbaa !53
  store ptr %1, ptr %4, align 8, !tbaa !41
  call void @llvm.lifetime.start.p0(i64 8, ptr %5) #10
  call void @llvm.lifetime.start.p0(i64 8, ptr %6) #10
  call void @llvm.lifetime.start.p0(i64 4, ptr %7) #10
  call void @llvm.lifetime.start.p0(i64 4, ptr %8) #10
  call void @llvm.lifetime.start.p0(i64 4, ptr %9) #10
  store i32 0, ptr %9, align 4, !tbaa !8
  store i32 0, ptr %8, align 4, !tbaa !8
  br label %10

10:                                               ; preds = %53, %2
  %11 = load i32, ptr %8, align 4, !tbaa !8
  %12 = load ptr, ptr %4, align 8, !tbaa !41
  %13 = call i32 @Vec_IntSize(ptr noundef %12)
  %14 = icmp slt i32 %11, %13
  br i1 %14, label %15, label %19

15:                                               ; preds = %10
  %16 = load ptr, ptr %4, align 8, !tbaa !41
  %17 = load i32, ptr %8, align 4, !tbaa !8
  %18 = call i32 @Vec_IntEntry(ptr noundef %16, i32 noundef %17)
  store i32 %18, ptr %7, align 4, !tbaa !8
  br label %19

19:                                               ; preds = %15, %10
  %20 = phi i1 [ false, %10 ], [ true, %15 ]
  br i1 %20, label %21, label %56

21:                                               ; preds = %19
  %22 = load i32, ptr %7, align 4, !tbaa !8
  %23 = icmp eq i32 %22, 0
  br i1 %23, label %24, label %25

24:                                               ; preds = %21
  br label %53

25:                                               ; preds = %21
  %26 = load ptr, ptr %3, align 8, !tbaa !53
  %27 = getelementptr inbounds nuw %struct.Fra_Man_t_, ptr %26, i32 0, i32 1
  %28 = load ptr, ptr %27, align 8, !tbaa !56
  %29 = load i32, ptr %7, align 4, !tbaa !8
  %30 = call i32 @Fra_ImpLeft(i32 noundef %29)
  %31 = call ptr @Aig_ManObj(ptr noundef %28, i32 noundef %30)
  store ptr %31, ptr %5, align 8, !tbaa !28
  %32 = load ptr, ptr %3, align 8, !tbaa !53
  %33 = getelementptr inbounds nuw %struct.Fra_Man_t_, ptr %32, i32 0, i32 1
  %34 = load ptr, ptr %33, align 8, !tbaa !56
  %35 = load i32, ptr %7, align 4, !tbaa !8
  %36 = call i32 @Fra_ImpRight(i32 noundef %35)
  %37 = call ptr @Aig_ManObj(ptr noundef %34, i32 noundef %36)
  store ptr %37, ptr %6, align 8, !tbaa !28
  %38 = load ptr, ptr %3, align 8, !tbaa !53
  %39 = getelementptr inbounds nuw %struct.Fra_Man_t_, ptr %38, i32 0, i32 7
  %40 = load ptr, ptr %39, align 8, !tbaa !98
  %41 = load ptr, ptr %5, align 8, !tbaa !28
  %42 = getelementptr inbounds nuw %struct.Aig_Obj_t_, ptr %41, i32 0, i32 5
  %43 = load i32, ptr %42, align 4, !tbaa !86
  %44 = load ptr, ptr %6, align 8, !tbaa !28
  %45 = getelementptr inbounds nuw %struct.Aig_Obj_t_, ptr %44, i32 0, i32 5
  %46 = load i32, ptr %45, align 4, !tbaa !86
  %47 = call i32 @Sml_NodeCheckImp(ptr noundef %40, i32 noundef %43, i32 noundef %46)
  %48 = icmp ne i32 %47, 0
  br i1 %48, label %52, label %49

49:                                               ; preds = %25
  %50 = load ptr, ptr %4, align 8, !tbaa !41
  %51 = load i32, ptr %8, align 4, !tbaa !8
  call void @Vec_IntWriteEntry(ptr noundef %50, i32 noundef %51, i32 noundef 0)
  store i32 1, ptr %9, align 4, !tbaa !8
  br label %52

52:                                               ; preds = %49, %25
  br label %53

53:                                               ; preds = %52, %24
  %54 = load i32, ptr %8, align 4, !tbaa !8
  %55 = add nsw i32 %54, 1
  store i32 %55, ptr %8, align 4, !tbaa !8
  br label %10, !llvm.loop !99

56:                                               ; preds = %19
  %57 = load i32, ptr %9, align 4, !tbaa !8
  call void @llvm.lifetime.end.p0(i64 4, ptr %9) #10
  call void @llvm.lifetime.end.p0(i64 4, ptr %8) #10
  call void @llvm.lifetime.end.p0(i64 4, ptr %7) #10
  call void @llvm.lifetime.end.p0(i64 8, ptr %6) #10
  call void @llvm.lifetime.end.p0(i64 8, ptr %5) #10
  ret i32 %57
}