; Function Attrs: nofree norecurse nosync nounwind memory(readwrite, inaccessiblemem: none) uwtable
define range(i32 0, 2) i32 @Fra_ImpRefineUsingCex(ptr noundef readonly captures(none) %0, ptr noundef readonly captures(none) %1) local_unnamed_addr #10 {
  %3 = getelementptr i8, ptr %1, i64 4
  %.val27 = load i32, ptr %3, align 4, !tbaa !38
  %4 = icmp sgt i32 %.val27, 0
  br i1 %4, label %.lr.ph, label %.critedge

.lr.ph:                                           ; preds = %2
  %5 = getelementptr i8, ptr %1, i64 8
  %.val17 = load ptr, ptr %5, align 8, !tbaa !43
  %6 = getelementptr inbounds nuw i8, ptr %0, i64 8
  %7 = getelementptr inbounds nuw i8, ptr %0, i64 56
  br label %8

8:                                                ; preds = %.lr.ph, %Sml_NodeCheckImp.exit.thread
  %.val31 = phi i32 [ %.val27, %.lr.ph ], [ %.val, %Sml_NodeCheckImp.exit.thread ]
  %indvars.iv = phi i64 [ 0, %.lr.ph ], [ %indvars.iv.next, %Sml_NodeCheckImp.exit.thread ]
  %.029 = phi i32 [ 0, %.lr.ph ], [ %.1, %Sml_NodeCheckImp.exit.thread ]
  %9 = getelementptr inbounds nuw i32, ptr %.val17, i64 %indvars.iv
  %10 = load i32, ptr %9, align 4, !tbaa !29
  %11 = icmp eq i32 %10, 0
  br i1 %11, label %Sml_NodeCheckImp.exit.thread, label %Aig_ManObj.exit23

Aig_ManObj.exit23:                                ; preds = %8
  %12 = load ptr, ptr %6, align 8, !tbaa !50
  %13 = and i32 %10, 65535
  %14 = getelementptr i8, ptr %12, i64 32
  %.val19 = load ptr, ptr %14, align 8, !tbaa !10, !nonnull !90, !noundef !90
  %15 = getelementptr i8, ptr %.val19, i64 8
  %.val.i = load ptr, ptr %15, align 8, !tbaa !25
  %16 = zext nneg i32 %13 to i64
  %17 = getelementptr inbounds nuw ptr, ptr %.val.i, i64 %16
  %18 = load ptr, ptr %17, align 8, !tbaa !26
  %19 = ashr i32 %10, 16
  %20 = sext i32 %19 to i64
  %21 = getelementptr inbounds ptr, ptr %.val.i, i64 %20
  %22 = load ptr, ptr %21, align 8, !tbaa !26
  %23 = load ptr, ptr %7, align 8, !tbaa !95
  %24 = getelementptr inbounds nuw i8, ptr %18, i64 36
  %25 = load i32, ptr %24, align 4, !tbaa !81
  %26 = getelementptr inbounds nuw i8, ptr %22, i64 36
  %27 = load i32, ptr %26, align 4, !tbaa !81
  %28 = getelementptr inbounds nuw i8, ptr %23, i64 40
  %29 = getelementptr inbounds nuw i8, ptr %23, i64 20
  %30 = load i32, ptr %29, align 4, !tbaa !27
  %31 = mul nsw i32 %30, %25
  %32 = sext i32 %31 to i64
  %33 = getelementptr inbounds i32, ptr %28, i64 %32
  %34 = mul nsw i32 %30, %27
  %35 = sext i32 %34 to i64
  %36 = getelementptr inbounds i32, ptr %28, i64 %35
  %37 = getelementptr inbounds nuw i8, ptr %23, i64 24
  %38 = load i32, ptr %37, align 8, !tbaa !28
  %39 = icmp slt i32 %38, %30
  br i1 %39, label %.lr.ph.preheader.i, label %Sml_NodeCheckImp.exit.thread

.lr.ph.preheader.i:                               ; preds = %Aig_ManObj.exit23
  %40 = sext i32 %38 to i64
  br label %.lr.ph.i

41:                                               ; preds = %.lr.ph.i
  %indvars.iv.next.i = add nsw i64 %indvars.iv.i, 1
  %lftr.wideiv.i = trunc i64 %indvars.iv.next.i to i32
  %exitcond.not.i = icmp eq i32 %30, %lftr.wideiv.i
  br i1 %exitcond.not.i, label %Sml_NodeCheckImp.exit.thread, label %.lr.ph.i, !llvm.loop !67

.lr.ph.i:                                         ; preds = %41, %.lr.ph.preheader.i
  %indvars.iv.i = phi i64 [ %40, %.lr.ph.preheader.i ], [ %indvars.iv.next.i, %41 ]
  %42 = getelementptr inbounds i32, ptr %33, i64 %indvars.iv.i
  %43 = load i32, ptr %42, align 4, !tbaa !29
  %44 = getelementptr inbounds i32, ptr %36, i64 %indvars.iv.i
  %45 = load i32, ptr %44, align 4, !tbaa !29
  %46 = xor i32 %45, -1
  %47 = and i32 %43, %46
  %.not.i24 = icmp eq i32 %47, 0
  br i1 %.not.i24, label %41, label %Sml_NodeCheckImp.exit

Sml_NodeCheckImp.exit:                            ; preds = %.lr.ph.i
  store i32 0, ptr %9, align 4, !tbaa !29
  %.val.pre = load i32, ptr %3, align 4, !tbaa !38
  br label %Sml_NodeCheckImp.exit.thread

Sml_NodeCheckImp.exit.thread:                     ; preds = %41, %Aig_ManObj.exit23, %Sml_NodeCheckImp.exit, %8
  %.val = phi i32 [ %.val31, %8 ], [ %.val.pre, %Sml_NodeCheckImp.exit ], [ %.val31, %Aig_ManObj.exit23 ], [ %.val31, %41 ]
  %.1 = phi i32 [ %.029, %8 ], [ 1, %Sml_NodeCheckImp.exit ], [ %.029, %Aig_ManObj.exit23 ], [ %.029, %41 ]
  %indvars.iv.next = add nuw nsw i64 %indvars.iv, 1
  %48 = sext i32 %.val to i64
  %49 = icmp slt i64 %indvars.iv.next, %48
  br i1 %49, label %8, label %.critedge, !llvm.loop !96

.critedge:                                        ; preds = %Sml_NodeCheckImp.exit.thread, %2
  %.0.lcssa = phi i32 [ 0, %2 ], [ %.1, %Sml_NodeCheckImp.exit.thread ]
  ret i32 %.0.lcssa
}